; ModuleID = '63/2018.c'
source_filename = "63/2018.c"
target datalayout = "e-m:e-p270:32:32-p271:32:32-p272:64:64-i64:64-f80:128-n8:16:32:64-S128"
target triple = "x86_64-pc-linux-gnu"

@.str = private unnamed_addr constant [3 x i8] c"%d\00", align 1
@.str.1 = private unnamed_addr constant [4 x i8] c"%d\0A\00", align 1
@.str.2 = private unnamed_addr constant [4 x i8] c"%d \00", align 1
@.str.3 = private unnamed_addr constant [5 x i8] c"%d%d\00", align 1

; Function Attrs: noinline nounwind uwtable
define dso_local void @input([100 x i32]* %0, i32 %1, i32 %2) #0 {
  %4 = alloca [100 x i32]*, align 8
  %5 = alloca i32, align 4
  %6 = alloca i32, align 4
  %7 = alloca i32, align 4
  %8 = alloca i32, align 4
  store [100 x i32]* %0, [100 x i32]** %4, align 8
  store i32 %1, i32* %5, align 4
  store i32 %2, i32* %6, align 4
  store i32 0, i32* %7, align 4
  br label %9

9:                                                ; preds = %32, %3
  %10 = load i32, i32* %7, align 4
  %11 = load i32, i32* %5, align 4
  %12 = icmp slt i32 %10, %11
  br i1 %12, label %13, label %35

13:                                               ; preds = %9
  store i32 0, i32* %8, align 4
  br label %14

14:                                               ; preds = %28, %13
  %15 = load i32, i32* %8, align 4
  %16 = load i32, i32* %6, align 4
  %17 = icmp slt i32 %15, %16
  br i1 %17, label %18, label %31

18:                                               ; preds = %14
  %19 = load [100 x i32]*, [100 x i32]** %4, align 8
  %20 = load i32, i32* %7, align 4
  %21 = sext i32 %20 to i64
  %22 = getelementptr inbounds [100 x i32], [100 x i32]* %19, i64 %21
  %23 = getelementptr inbounds [100 x i32], [100 x i32]* %22, i64 0, i64 0
  %24 = load i32, i32* %8, align 4
  %25 = sext i32 %24 to i64
  %26 = getelementptr inbounds i32, i32* %23, i64 %25
  %27 = call i32 (i8*, ...) @__isoc99_scanf(i8* getelementptr inbounds ([3 x i8], [3 x i8]* @.str, i64 0, i64 0), i32* %26)
  br label %28

28:                                               ; preds = %18
  %29 = load i32, i32* %8, align 4
  %30 = add nsw i32 %29, 1
  store i32 %30, i32* %8, align 4
  br label %14

31:                                               ; preds = %14
  br label %32

32:                                               ; preds = %31
  %33 = load i32, i32* %7, align 4
  %34 = add nsw i32 %33, 1
  store i32 %34, i32* %7, align 4
  br label %9

35:                                               ; preds = %9
  ret void
}

declare dso_local i32 @__isoc99_scanf(i8*, ...) #1

; Function Attrs: noinline nounwind uwtable
define dso_local void @mult([100 x i32]* %0, [100 x i32]* %1, i32 %2, i32 %3, i32 %4) #0 {
  %6 = alloca [100 x i32]*, align 8
  %7 = alloca [100 x i32]*, align 8
  %8 = alloca i32, align 4
  %9 = alloca i32, align 4
  %10 = alloca i32, align 4
  %11 = alloca i32, align 4
  %12 = alloca i32, align 4
  %13 = alloca i32, align 4
  %14 = alloca i32, align 4
  store [100 x i32]* %0, [100 x i32]** %6, align 8
  store [100 x i32]* %1, [100 x i32]** %7, align 8
  store i32 %2, i32* %8, align 4
  store i32 %3, i32* %9, align 4
  store i32 %4, i32* %10, align 4
  store i32 0, i32* %11, align 4
  br label %15

15:                                               ; preds = %68, %5
  %16 = load i32, i32* %11, align 4
  %17 = load i32, i32* %8, align 4
  %18 = icmp slt i32 %16, %17
  br i1 %18, label %19, label %71

19:                                               ; preds = %15
  store i32 0, i32* %12, align 4
  br label %20

20:                                               ; preds = %64, %19
  %21 = load i32, i32* %12, align 4
  %22 = load i32, i32* %9, align 4
  %23 = icmp slt i32 %21, %22
  br i1 %23, label %24, label %67

24:                                               ; preds = %20
  store i32 0, i32* %14, align 4
  store i32 0, i32* %13, align 4
  br label %25

25:                                               ; preds = %49, %24
  %26 = load i32, i32* %13, align 4
  %27 = load i32, i32* %10, align 4
  %28 = icmp slt i32 %26, %27
  br i1 %28, label %29, label %52

29:                                               ; preds = %25
  %30 = load [100 x i32]*, [100 x i32]** %6, align 8
  %31 = load i32, i32* %11, align 4
  %32 = sext i32 %31 to i64
  %33 = getelementptr inbounds [100 x i32], [100 x i32]* %30, i64 %32
  %34 = load i32, i32* %13, align 4
  %35 = sext i32 %34 to i64
  %36 = getelementptr inbounds [100 x i32], [100 x i32]* %33, i64 0, i64 %35
  %37 = load i32, i32* %36, align 4
  %38 = load [100 x i32]*, [100 x i32]** %7, align 8
  %39 = load i32, i32* %13, align 4
  %40 = sext i32 %39 to i64
  %41 = getelementptr inbounds [100 x i32], [100 x i32]* %38, i64 %40
  %42 = load i32, i32* %12, align 4
  %43 = sext i32 %42 to i64
  %44 = getelementptr inbounds [100 x i32], [100 x i32]* %41, i64 0, i64 %43
  %45 = load i32, i32* %44, align 4
  %46 = mul nsw i32 %37, %45
  %47 = load i32, i32* %14, align 4
  %48 = add nsw i32 %47, %46
  store i32 %48, i32* %14, align 4
  br label %49

49:                                               ; preds = %29
  %50 = load i32, i32* %13, align 4
  %51 = add nsw i32 %50, 1
  store i32 %51, i32* %13, align 4
  br label %25

52:                                               ; preds = %25
  %53 = load i32, i32* %12, align 4
  %54 = load i32, i32* %9, align 4
  %55 = sub nsw i32 %54, 1
  %56 = icmp eq i32 %53, %55
  br i1 %56, label %57, label %60

57:                                               ; preds = %52
  %58 = load i32, i32* %14, align 4
  %59 = call i32 (i8*, ...) @printf(i8* getelementptr inbounds ([4 x i8], [4 x i8]* @.str.1, i64 0, i64 0), i32 %58)
  br label %63

60:                                               ; preds = %52
  %61 = load i32, i32* %14, align 4
  %62 = call i32 (i8*, ...) @printf(i8* getelementptr inbounds ([4 x i8], [4 x i8]* @.str.2, i64 0, i64 0), i32 %61)
  br label %63

63:                                               ; preds = %60, %57
  br label %64

64:                                               ; preds = %63
  %65 = load i32, i32* %12, align 4
  %66 = add nsw i32 %65, 1
  store i32 %66, i32* %12, align 4
  br label %20

67:                                               ; preds = %20
  br label %68

68:                                               ; preds = %67
  %69 = load i32, i32* %11, align 4
  %70 = add nsw i32 %69, 1
  store i32 %70, i32* %11, align 4
  br label %15

71:                                               ; preds = %15
  ret void
}

declare dso_local i32 @printf(i8*, ...) #1

; Function Attrs: noinline nounwind uwtable
define dso_local i32 @main() #0 {
  %1 = alloca [100 x [100 x i32]], align 16
  %2 = alloca [100 x [100 x i32]], align 16
  %3 = alloca i32, align 4
  %4 = alloca i32, align 4
  %5 = alloca i32, align 4
  %6 = alloca i32, align 4
  %7 = call i32 (i8*, ...) @__isoc99_scanf(i8* getelementptr inbounds ([5 x i8], [5 x i8]* @.str.3, i64 0, i64 0), i32* %3, i32* %4)
  %8 = getelementptr inbounds [100 x [100 x i32]], [100 x [100 x i32]]* %1, i64 0, i64 0
  %9 = load i32, i32* %3, align 4
  %10 = load i32, i32* %4, align 4
  call void @input([100 x i32]* %8, i32 %9, i32 %10)
  %11 = call i32 (i8*, ...) @__isoc99_scanf(i8* getelementptr inbounds ([5 x i8], [5 x i8]* @.str.3, i64 0, i64 0), i32* %5, i32* %6)
  %12 = getelementptr inbounds [100 x [100 x i32]], [100 x [100 x i32]]* %2, i64 0, i64 0
  %13 = load i32, i32* %5, align 4
  %14 = load i32, i32* %6, align 4
  call void @input([100 x i32]* %12, i32 %13, i32 %14)
  %15 = getelementptr inbounds [100 x [100 x i32]], [100 x [100 x i32]]* %1, i64 0, i64 0
  %16 = getelementptr inbounds [100 x [100 x i32]], [100 x [100 x i32]]* %2, i64 0, i64 0
  %17 = load i32, i32* %3, align 4
  %18 = load i32, i32* %6, align 4
  %19 = load i32, i32* %4, align 4
  call void @mult([100 x i32]* %15, [100 x i32]* %16, i32 %17, i32 %18, i32 %19)
  ret i32 0
}


!llvm.module.flags = !{!0}
!llvm.ident = !{!1}

!0 = !{i32 1, !"wchar_size", i32 4}
!1 = !{!"clang version 10.0.0-4ubuntu1 "}
